; ModuleID = '28/1690.c'
source_filename = "28/1690.c"
target datalayout = "e-m:e-p270:32:32-p271:32:32-p272:64:64-i64:64-f80:128-n8:16:32:64-S128"
target triple = "x86_64-pc-linux-gnu"

@.str = private unnamed_addr constant [4 x i8] c"%d,\00", align 1
@.str.1 = private unnamed_addr constant [3 x i8] c"%d\00", align 1

; Function Attrs: noinline nounwind uwtable
define dso_local void @main() #0 {
  %1 = alloca [30000 x i8], align 16
  %2 = alloca i8, align 1
  %3 = alloca [300 x i32], align 16
  %4 = alloca i32, align 4
  %5 = alloca i32, align 4
  %6 = alloca i32, align 4
  %7 = alloca i32, align 4
  %8 = alloca i32, align 4
  %9 = alloca i32, align 4
  %10 = bitcast [300 x i32]* %3 to i8*
  call void @llvm.memset.p0i8.i64(i8* align 16 %10, i8 0, i64 1200, i1 false)
  store i32 0, i32* %6, align 4
  store i32 0, i32* %7, align 4
  store i32 0, i32* %9, align 4
  %11 = getelementptr inbounds [30000 x i8], [30000 x i8]* %1, i64 0, i64 0
  %12 = call i32 (i8*, ...) bitcast (i32 (...)* @gets to i32 (i8*, ...)*)(i8* %11)
  store i32 0, i32* %4, align 4
  br label %13

13:                                               ; preds = %38, %0
  %14 = load i32, i32* %4, align 4
  %15 = sext i32 %14 to i64
  %16 = getelementptr inbounds [30000 x i8], [30000 x i8]* %1, i64 0, i64 %15
  %17 = load i8, i8* %16, align 1
  store i8 %17, i8* %2, align 1
  %18 = sext i8 %17 to i32
  %19 = icmp ne i32 %18, 0
  br i1 %19, label %20, label %41

20:                                               ; preds = %13
  %21 = load i8, i8* %2, align 1
  %22 = sext i8 %21 to i32
  %23 = icmp eq i32 %22, 32
  br i1 %23, label %24, label %25

24:                                               ; preds = %20
  store i32 0, i32* %9, align 4
  br label %37

25:                                               ; preds = %20
  %26 = load i32, i32* %9, align 4
  %27 = icmp eq i32 %26, 0
  br i1 %27, label %28, label %31

28:                                               ; preds = %25
  %29 = load i32, i32* %7, align 4
  %30 = add nsw i32 %29, 1
  store i32 %30, i32* %7, align 4
  store i32 1, i32* %9, align 4
  br label %31

31:                                               ; preds = %28, %25
  %32 = load i32, i32* %7, align 4
  %33 = sext i32 %32 to i64
  %34 = getelementptr inbounds [300 x i32], [300 x i32]* %3, i64 0, i64 %33
  %35 = load i32, i32* %34, align 4
  %36 = add nsw i32 %35, 1
  store i32 %36, i32* %34, align 4
  br label %37

37:                                               ; preds = %31, %24
  br label %38

38:                                               ; preds = %37
  %39 = load i32, i32* %4, align 4
  %40 = add nsw i32 %39, 1
  store i32 %40, i32* %4, align 4
  br label %13

41:                                               ; preds = %13
  store i32 1, i32* %8, align 4
  br label %42

42:                                               ; preds = %52, %41
  %43 = load i32, i32* %8, align 4
  %44 = load i32, i32* %7, align 4
  %45 = icmp slt i32 %43, %44
  br i1 %45, label %46, label %55

46:                                               ; preds = %42
  %47 = load i32, i32* %8, align 4
  %48 = sext i32 %47 to i64
  %49 = getelementptr inbounds [300 x i32], [300 x i32]* %3, i64 0, i64 %48
  %50 = load i32, i32* %49, align 4
  %51 = call i32 (i8*, ...) @printf(i8* getelementptr inbounds ([4 x i8], [4 x i8]* @.str, i64 0, i64 0), i32 %50)
  br label %52

52:                                               ; preds = %46
  %53 = load i32, i32* %8, align 4
  %54 = add nsw i32 %53, 1
  store i32 %54, i32* %8, align 4
  br label %42

55:                                               ; preds = %42
  %56 = load i32, i32* %7, align 4
  %57 = sext i32 %56 to i64
  %58 = getelementptr inbounds [300 x i32], [300 x i32]* %3, i64 0, i64 %57
  %59 = load i32, i32* %58, align 4
  %60 = call i32 (i8*, ...) @printf(i8* getelementptr inbounds ([3 x i8], [3 x i8]* @.str.1, i64 0, i64 0), i32 %59)
  ret void
}

; Function Attrs: argmemonly nounwind willreturn
declare void @llvm.memset.p0i8.i64(i8* nocapture writeonly, i8, i64, i1 immarg) #1

declare dso_local i32 @gets(...) #2

declare dso_local i32 @printf(i8*, ...) #2


!llvm.module.flags = !{!0}
!llvm.ident = !{!1}

!0 = !{i32 1, !"wchar_size", i32 4}
!1 = !{!"clang version 10.0.0-4ubuntu1 "}
